target datalayout = "e-m:e-p270:32:32-p271:32:32-p272:64:64-i64:64-i128:128-f80:128-n8:16:32:64-S128"
target triple = "x86_64-pc-linux-gnu"

%struct.evp_cipher_ctx_st = type { ptr, ptr, ptr, i32, i32, i32, [16 x i8], [16 x i8], [32 x i8], i32, i32, i32, i32, [32 x i8] }
%struct.evp_cipher_st = type { i32, i32, i32, i32, i32, i32, ptr, ptr, ptr, ptr, ptr }

@.str = private unnamed_addr constant [126 x i8] c"generated/home/dtcxzyw/WorkSpace/Projects/compilers/llvm-opt-benchmark/bench/libquic/libquic/boringssl/crypto/cipher/cipher.c\00", align 1

; Function Attrs: nounwind uwtable
define hidden i32 @EVP_DecryptFinal_ex(ptr noundef %0, ptr noundef %1, ptr noundef %2) #0 {
  %4 = alloca i32, align 4
  %5 = alloca ptr, align 8
  %6 = alloca ptr, align 8
  %7 = alloca ptr, align 8
  %8 = alloca i32, align 4
  %9 = alloca i32, align 4
  %10 = alloca i32, align 4
  %11 = alloca i32, align 4
  store ptr %0, ptr %5, align 8, !tbaa !10
  store ptr %1, ptr %6, align 8, !tbaa !25
  store ptr %2, ptr %7, align 8, !tbaa !39
  call void @llvm.lifetime.start.p0(i64 4, ptr %8) #7
  call void @llvm.lifetime.start.p0(i64 4, ptr %9) #7
  call void @llvm.lifetime.start.p0(i64 4, ptr %10) #7
  %12 = load ptr, ptr %7, align 8, !tbaa !39
  store i32 0, ptr %12, align 4, !tbaa !6
  %13 = load ptr, ptr %5, align 8, !tbaa !10
  %14 = getelementptr inbounds nuw %struct.evp_cipher_ctx_st, ptr %13, i32 0, i32 0
  %15 = load ptr, ptr %14, align 8, !tbaa !13
  %16 = getelementptr inbounds nuw %struct.evp_cipher_st, ptr %15, i32 0, i32 5
  %17 = load i32, ptr %16, align 4, !tbaa !20
  %18 = and i32 %17, 1024
  %19 = icmp ne i32 %18, 0
  br i1 %19, label %20, label %36

20:                                               ; preds = %3
  %21 = load ptr, ptr %5, align 8, !tbaa !10
  %22 = getelementptr inbounds nuw %struct.evp_cipher_ctx_st, ptr %21, i32 0, i32 0
  %23 = load ptr, ptr %22, align 8, !tbaa !13
  %24 = getelementptr inbounds nuw %struct.evp_cipher_st, ptr %23, i32 0, i32 8
  %25 = load ptr, ptr %24, align 8, !tbaa !41
  %26 = load ptr, ptr %5, align 8, !tbaa !10
  %27 = load ptr, ptr %6, align 8, !tbaa !25
  %28 = call i32 %25(ptr noundef %26, ptr noundef %27, ptr noundef null, i64 noundef 0)
  store i32 %28, ptr %8, align 4, !tbaa !6
  %29 = load i32, ptr %8, align 4, !tbaa !6
  %30 = icmp slt i32 %29, 0
  br i1 %30, label %31, label %32

31:                                               ; preds = %20
  store i32 0, ptr %4, align 4
  store i32 1, ptr %11, align 4
  br label %138

32:                                               ; preds = %20
  %33 = load i32, ptr %8, align 4, !tbaa !6
  %34 = load ptr, ptr %7, align 8, !tbaa !39
  store i32 %33, ptr %34, align 4, !tbaa !6
  br label %35

35:                                               ; preds = %32
  store i32 1, ptr %4, align 4
  store i32 1, ptr %11, align 4
  br label %138

36:                                               ; preds = %3
  %37 = load ptr, ptr %5, align 8, !tbaa !10
  %38 = getelementptr inbounds nuw %struct.evp_cipher_ctx_st, ptr %37, i32 0, i32 0
  %39 = load ptr, ptr %38, align 8, !tbaa !13
  %40 = getelementptr inbounds nuw %struct.evp_cipher_st, ptr %39, i32 0, i32 1
  %41 = load i32, ptr %40, align 4, !tbaa !35
  store i32 %41, ptr %10, align 4, !tbaa !6
  %42 = load ptr, ptr %5, align 8, !tbaa !10
  %43 = getelementptr inbounds nuw %struct.evp_cipher_ctx_st, ptr %42, i32 0, i32 5
  %44 = load i32, ptr %43, align 8, !tbaa !30
  %45 = and i32 %44, 2048
  %46 = icmp ne i32 %45, 0
  br i1 %46, label %47, label %55

47:                                               ; preds = %36
  %48 = load ptr, ptr %5, align 8, !tbaa !10
  %49 = getelementptr inbounds nuw %struct.evp_cipher_ctx_st, ptr %48, i32 0, i32 9
  %50 = load i32, ptr %49, align 4, !tbaa !33
  %51 = icmp ne i32 %50, 0
  br i1 %51, label %52, label %53

52:                                               ; preds = %47
  call void @ERR_put_error(i32 noundef 30, i32 noundef 0, i32 noundef 106, ptr noundef @.str, i32 noundef 442)
  store i32 0, ptr %4, align 4
  store i32 1, ptr %11, align 4
  br label %138

53:                                               ; preds = %47
  %54 = load ptr, ptr %7, align 8, !tbaa !39
  store i32 0, ptr %54, align 4, !tbaa !6
  store i32 1, ptr %4, align 4
  store i32 1, ptr %11, align 4
  br label %138

55:                                               ; preds = %36
  %56 = load i32, ptr %10, align 4, !tbaa !6
  %57 = icmp ugt i32 %56, 1
  br i1 %57, label %58, label %135

58:                                               ; preds = %55
  %59 = load ptr, ptr %5, align 8, !tbaa !10
  %60 = getelementptr inbounds nuw %struct.evp_cipher_ctx_st, ptr %59, i32 0, i32 9
  %61 = load i32, ptr %60, align 4, !tbaa !33
  %62 = icmp ne i32 %61, 0
  br i1 %62, label %68, label %63

63:                                               ; preds = %58
  %64 = load ptr, ptr %5, align 8, !tbaa !10
  %65 = getelementptr inbounds nuw %struct.evp_cipher_ctx_st, ptr %64, i32 0, i32 11
  %66 = load i32, ptr %65, align 4, !tbaa !34
  %67 = icmp ne i32 %66, 0
  br i1 %67, label %69, label %68

68:                                               ; preds = %63, %58
  call void @ERR_put_error(i32 noundef 30, i32 noundef 0, i32 noundef 123, ptr noundef @.str, i32 noundef 451)
  store i32 0, ptr %4, align 4
  store i32 1, ptr %11, align 4
  br label %138

69:                                               ; preds = %63
  %70 = load ptr, ptr %5, align 8, !tbaa !10
  %71 = getelementptr inbounds nuw %struct.evp_cipher_ctx_st, ptr %70, i32 0, i32 13
  %72 = load i32, ptr %10, align 4, !tbaa !6
  %73 = sub i32 %72, 1
  %74 = zext i32 %73 to i64
  %75 = getelementptr inbounds nuw [32 x i8], ptr %71, i64 0, i64 %74
  %76 = load i8, ptr %75, align 1, !tbaa !42
  %77 = zext i8 %76 to i32
  store i32 %77, ptr %9, align 4, !tbaa !6
  %78 = load i32, ptr %9, align 4, !tbaa !6
  %79 = icmp eq i32 %78, 0
  br i1 %79, label %84, label %80

80:                                               ; preds = %69
  %81 = load i32, ptr %9, align 4, !tbaa !6
  %82 = load i32, ptr %10, align 4, !tbaa !6
  %83 = icmp sgt i32 %81, %82
  br i1 %83, label %84, label %85

84:                                               ; preds = %80, %69
  call void @ERR_put_error(i32 noundef 30, i32 noundef 0, i32 noundef 101, ptr noundef @.str, i32 noundef 460)
  store i32 0, ptr %4, align 4
  store i32 1, ptr %11, align 4
  br label %138

85:                                               ; preds = %80
  store i32 0, ptr %8, align 4, !tbaa !6
  br label %86

86:                                               ; preds = %103, %85
  %87 = load i32, ptr %8, align 4, !tbaa !6
  %88 = load i32, ptr %9, align 4, !tbaa !6
  %89 = icmp slt i32 %87, %88
  br i1 %89, label %90, label %106

90:                                               ; preds = %86
  %91 = load ptr, ptr %5, align 8, !tbaa !10
  %92 = getelementptr inbounds nuw %struct.evp_cipher_ctx_st, ptr %91, i32 0, i32 13
  %93 = load i32, ptr %10, align 4, !tbaa !6
  %94 = add i32 %93, -1
  store i32 %94, ptr %10, align 4, !tbaa !6
  %95 = zext i32 %94 to i64
  %96 = getelementptr inbounds nuw [32 x i8], ptr %92, i64 0, i64 %95
  %97 = load i8, ptr %96, align 1, !tbaa !42
  %98 = zext i8 %97 to i32
  %99 = load i32, ptr %9, align 4, !tbaa !6
  %100 = icmp ne i32 %98, %99
  br i1 %100, label %101, label %102

101:                                              ; preds = %90
  call void @ERR_put_error(i32 noundef 30, i32 noundef 0, i32 noundef 101, ptr noundef @.str, i32 noundef 466)
  store i32 0, ptr %4, align 4
  store i32 1, ptr %11, align 4
  br label %138

102:                                              ; preds = %90
  br label %103

103:                                              ; preds = %102
  %104 = load i32, ptr %8, align 4, !tbaa !6
  %105 = add nsw i32 %104, 1
  store i32 %105, ptr %8, align 4, !tbaa !6
  br label %86, !llvm.loop !45

106:                                              ; preds = %86
  %107 = load ptr, ptr %5, align 8, !tbaa !10
  %108 = getelementptr inbounds nuw %struct.evp_cipher_ctx_st, ptr %107, i32 0, i32 0
  %109 = load ptr, ptr %108, align 8, !tbaa !13
  %110 = getelementptr inbounds nuw %struct.evp_cipher_st, ptr %109, i32 0, i32 1
  %111 = load i32, ptr %110, align 4, !tbaa !35
  %112 = load i32, ptr %9, align 4, !tbaa !6
  %113 = sub i32 %111, %112
  store i32 %113, ptr %9, align 4, !tbaa !6
  store i32 0, ptr %8, align 4, !tbaa !6
  br label %114

114:                                              ; preds = %129, %106
  %115 = load i32, ptr %8, align 4, !tbaa !6
  %116 = load i32, ptr %9, align 4, !tbaa !6
  %117 = icmp slt i32 %115, %116
  br i1 %117, label %118, label %132

118:                                              ; preds = %114
  %119 = load ptr, ptr %5, align 8, !tbaa !10
  %120 = getelementptr inbounds nuw %struct.evp_cipher_ctx_st, ptr %119, i32 0, i32 13
  %121 = load i32, ptr %8, align 4, !tbaa !6
  %122 = sext i32 %121 to i64
  %123 = getelementptr inbounds [32 x i8], ptr %120, i64 0, i64 %122
  %124 = load i8, ptr %123, align 1, !tbaa !42
  %125 = load ptr, ptr %6, align 8, !tbaa !25
  %126 = load i32, ptr %8, align 4, !tbaa !6
  %127 = sext i32 %126 to i64
  %128 = getelementptr inbounds i8, ptr %125, i64 %127
  store i8 %124, ptr %128, align 1, !tbaa !42
  br label %129

129:                                              ; preds = %118
  %130 = load i32, ptr %8, align 4, !tbaa !6
  %131 = add nsw i32 %130, 1
  store i32 %131, ptr %8, align 4, !tbaa !6
  br label %114, !llvm.loop !46

132:                                              ; preds = %114
  %133 = load i32, ptr %9, align 4, !tbaa !6
  %134 = load ptr, ptr %7, align 8, !tbaa !39
  store i32 %133, ptr %134, align 4, !tbaa !6
  br label %137

135:                                              ; preds = %55
  %136 = load ptr, ptr %7, align 8, !tbaa !39
  store i32 0, ptr %136, align 4, !tbaa !6
  br label %137

137:                                              ; preds = %135, %132
  store i32 1, ptr %4, align 4
  store i32 1, ptr %11, align 4
  br label %138

138:                                              ; preds = %137, %101, %84, %68, %53, %52, %35, %31
  call void @llvm.lifetime.end.p0(i64 4, ptr %10) #7
  call void @llvm.lifetime.end.p0(i64 4, ptr %9) #7
  call void @llvm.lifetime.end.p0(i64 4, ptr %8) #7
  %139 = load i32, ptr %4, align 4
  ret i32 %139
}