; Function Attrs: nounwind uwtable
define hidden range(i32 0, 2) i32 @EVP_DecryptFinal_ex(ptr noundef %0, ptr noundef %1, ptr noundef writeonly captures(none) initializes((0, 4)) %2) local_unnamed_addr #0 {
  store i32 0, ptr %2, align 4, !tbaa !31
  %4 = load ptr, ptr %0, align 8, !tbaa !6
  %5 = getelementptr inbounds nuw i8, ptr %4, i64 20
  %6 = load i32, ptr %5, align 4, !tbaa !17
  %7 = and i32 %6, 1024
  %.not = icmp eq i32 %7, 0
  br i1 %.not, label %14, label %8

8:                                                ; preds = %3
  %9 = getelementptr inbounds nuw i8, ptr %4, i64 40
  %10 = load ptr, ptr %9, align 8, !tbaa !30
  %11 = tail call i32 %10(ptr noundef nonnull %0, ptr noundef %1, ptr noundef null, i64 noundef 0) #14
  %12 = icmp slt i32 %11, 0
  br i1 %12, label %56, label %13

13:                                               ; preds = %8
  store i32 %11, ptr %2, align 4, !tbaa !31
  br label %56

14:                                               ; preds = %3
  %15 = getelementptr inbounds nuw i8, ptr %4, i64 4
  %16 = load i32, ptr %15, align 4, !tbaa !28
  %17 = getelementptr inbounds nuw i8, ptr %0, i64 32
  %18 = load i32, ptr %17, align 8, !tbaa !22
  %19 = and i32 %18, 2048
  %.not44 = icmp eq i32 %19, 0
  br i1 %.not44, label %24, label %20

20:                                               ; preds = %14
  %21 = getelementptr inbounds nuw i8, ptr %0, i64 100
  %22 = load i32, ptr %21, align 4, !tbaa !26
  %.not48 = icmp eq i32 %22, 0
  br i1 %.not48, label %56, label %23

23:                                               ; preds = %20
  tail call void @ERR_put_error(i32 noundef 30, i32 noundef 0, i32 noundef 106, ptr noundef nonnull @.str, i32 noundef 442) #14
  br label %56

24:                                               ; preds = %14
  %25 = icmp ugt i32 %16, 1
  br i1 %25, label %26, label %.loopexit

26:                                               ; preds = %24
  %27 = getelementptr inbounds nuw i8, ptr %0, i64 100
  %28 = load i32, ptr %27, align 4, !tbaa !26
  %.not45 = icmp eq i32 %28, 0
  br i1 %.not45, label %29, label %32

29:                                               ; preds = %26
  %30 = getelementptr inbounds nuw i8, ptr %0, i64 108
  %31 = load i32, ptr %30, align 4, !tbaa !27
  %.not46 = icmp eq i32 %31, 0
  br i1 %.not46, label %32, label %33

32:                                               ; preds = %29, %26
  tail call void @ERR_put_error(i32 noundef 30, i32 noundef 0, i32 noundef 123, ptr noundef nonnull @.str, i32 noundef 451) #14
  br label %56

33:                                               ; preds = %29
  %34 = getelementptr inbounds nuw i8, ptr %0, i64 116
  %35 = add i32 %16, -1
  %36 = zext i32 %35 to i64
  %37 = getelementptr inbounds nuw [32 x i8], ptr %34, i64 0, i64 %36
  %38 = load i8, ptr %37, align 1, !tbaa !32
  %39 = zext i8 %38 to i32
  %40 = icmp eq i8 %38, 0
  %41 = icmp slt i32 %16, %39
  %or.cond = select i1 %40, i1 true, i1 %41
  br i1 %or.cond, label %42, label %.preheader

42:                                               ; preds = %33
  tail call void @ERR_put_error(i32 noundef 30, i32 noundef 0, i32 noundef 101, ptr noundef nonnull @.str, i32 noundef 460) #14
  br label %56

43:                                               ; preds = %.preheader
  %44 = add nuw nsw i32 %.03849, 1
  %exitcond.not = icmp eq i32 %44, %39
  br i1 %exitcond.not, label %50, label %.preheader, !llvm.loop !33

.preheader:                                       ; preds = %33, %43
  %.050 = phi i32 [ %45, %43 ], [ %16, %33 ]
  %.03849 = phi i32 [ %44, %43 ], [ 0, %33 ]
  %45 = add i32 %.050, -1
  %46 = zext i32 %45 to i64
  %47 = getelementptr inbounds nuw [32 x i8], ptr %34, i64 0, i64 %46
  %48 = load i8, ptr %47, align 1, !tbaa !32
  %.not47 = icmp eq i8 %48, %38
  br i1 %.not47, label %43, label %49

49:                                               ; preds = %.preheader
  tail call void @ERR_put_error(i32 noundef 30, i32 noundef 0, i32 noundef 101, ptr noundef nonnull @.str, i32 noundef 466) #14
  br label %56

50:                                               ; preds = %43
  %51 = sub i32 %16, %39
  %52 = icmp sgt i32 %51, 0
  br i1 %52, label %.lr.ph.preheader, label %.loopexit

.lr.ph.preheader:                                 ; preds = %50
  %wide.trip.count = zext nneg i32 %51 to i64
  br label %.lr.ph

.lr.ph:                                           ; preds = %.lr.ph.preheader, %.lr.ph
  %indvars.iv = phi i64 [ 0, %.lr.ph.preheader ], [ %indvars.iv.next, %.lr.ph ]
  %53 = getelementptr inbounds nuw [32 x i8], ptr %34, i64 0, i64 %indvars.iv
  %54 = load i8, ptr %53, align 1, !tbaa !32
  %55 = getelementptr inbounds nuw i8, ptr %1, i64 %indvars.iv
  store i8 %54, ptr %55, align 1, !tbaa !32
  %indvars.iv.next = add nuw nsw i64 %indvars.iv, 1
  %exitcond53.not = icmp eq i64 %indvars.iv.next, %wide.trip.count
  br i1 %exitcond53.not, label %.loopexit, label %.lr.ph, !llvm.loop !35

.loopexit:                                        ; preds = %.lr.ph, %50, %24
  %storemerge = phi i32 [ 0, %24 ], [ %51, %50 ], [ %51, %.lr.ph ]
  store i32 %storemerge, ptr %2, align 4, !tbaa !31
  br label %56

56:                                               ; preds = %20, %8, %.loopexit, %49, %42, %32, %23, %13
  %.039 = phi i32 [ 1, %13 ], [ 0, %23 ], [ 0, %32 ], [ 0, %42 ], [ 0, %49 ], [ 1, %.loopexit ], [ 0, %8 ], [ 1, %20 ]
  ret i32 %.039
}